target datalayout = "e-m:e-p270:32:32-p271:32:32-p272:64:64-i64:64-i128:128-f80:128-n8:16:32:64-S128"
target triple = "x86_64-pc-linux-gnu"

%struct._lv_global_t = type { i8, i8, %struct.lv_ll_t, ptr, ptr, %struct.lv_ll_t, i8, i32, i32, ptr, %struct.lv_ll_t, ptr, %struct.lv_ll_t, ptr, ptr, i32, ptr, i8, i32, i32, ptr, i32, %struct.lv_timer_state_t, %struct.lv_anim_state_t, %struct.lv_tick_state_t, %struct._lv_draw_buf_handlers_t, %struct._lv_draw_buf_handlers_t, %struct._lv_draw_buf_handlers_t, %struct.lv_ll_t, ptr, ptr, %struct.lv_draw_global_info_t, [4 x %struct.lv_draw_sw_mask_radius_circle_dsc_t], ptr, ptr, ptr, %struct.lv_tlsf_state_t, %struct.lv_ll_t, ptr, ptr, %struct.lv_style_t, i64, ptr, i32, ptr }
%struct.lv_timer_state_t = type { %struct.lv_ll_t, i8, i8, i8, i8, i32, i8, i32, i32, i32, i32, ptr, ptr }
%struct.lv_anim_state_t = type { i8, i8, ptr, %struct.lv_ll_t }
%struct.lv_tick_state_t = type { i32, i8, ptr, ptr }
%struct._lv_draw_buf_handlers_t = type { ptr, ptr, ptr, ptr, ptr, ptr }
%struct.lv_draw_global_info_t = type { ptr, i32, i32, i32, i32, i8 }
%struct.lv_draw_sw_mask_radius_circle_dsc_t = type { ptr, ptr, ptr, ptr, i32, i32, i32 }
%struct.lv_tlsf_state_t = type { ptr, i64, i64, %struct.lv_ll_t }
%struct.lv_ll_t = type { i32, ptr, ptr }
%struct.lv_style_t = type { ptr, i32, i8 }
%struct._lv_timer_t = type { i32, i32, ptr, ptr, i32, i8 }

@lv_global = external global %struct._lv_global_t, align 8

; Function Attrs: nounwind uwtable
define internal void @lv_timer_handler_resume() #0 {
  store i32 0, ptr getelementptr inbounds nuw (%struct.lv_timer_state_t, ptr getelementptr inbounds nuw (%struct._lv_global_t, ptr @lv_global, i32 0, i32 22), i32 0, i32 5), align 4, !tbaa !46
  %1 = load ptr, ptr getelementptr inbounds nuw (%struct.lv_timer_state_t, ptr getelementptr inbounds nuw (%struct._lv_global_t, ptr @lv_global, i32 0, i32 22), i32 0, i32 11), align 8, !tbaa !47
  %2 = icmp ne ptr %1, null
  br i1 %2, label %3, label %6

3:                                                ; preds = %0
  %4 = load ptr, ptr getelementptr inbounds nuw (%struct.lv_timer_state_t, ptr getelementptr inbounds nuw (%struct._lv_global_t, ptr @lv_global, i32 0, i32 22), i32 0, i32 11), align 8, !tbaa !47
  %5 = load ptr, ptr getelementptr inbounds nuw (%struct.lv_timer_state_t, ptr getelementptr inbounds nuw (%struct._lv_global_t, ptr @lv_global, i32 0, i32 22), i32 0, i32 12), align 8, !tbaa !48
  call void %4(ptr noundef %5)
  br label %6

6:                                                ; preds = %3, %0
  ret void
}

; Function Attrs: nounwind uwtable
define void @lv_timer_resume(ptr noundef %0) #0 {
  %2 = alloca ptr, align 8
  store ptr %0, ptr %2, align 8, !tbaa !22
  br label %3

3:                                                ; preds = %1
  %4 = load ptr, ptr %2, align 8, !tbaa !22
  %5 = icmp ne ptr %4, null
  br i1 %5, label %10, label %6

6:                                                ; preds = %3
  br label %7

7:                                                ; preds = %6
  br label %8

8:                                                ; preds = %7
  br label %9

9:                                                ; preds = %8, %9
  br label %9

10:                                               ; preds = %3
  br label %11

11:                                               ; preds = %10
  %12 = load ptr, ptr %2, align 8, !tbaa !22
  %13 = getelementptr inbounds nuw %struct._lv_timer_t, ptr %12, i32 0, i32 5
  %14 = load i8, ptr %13, align 4
  %15 = and i8 %14, -2
  %16 = or i8 %15, 0
  store i8 %16, ptr %13, align 4
  call void @lv_timer_handler_resume()
  ret void
}