; Function Attrs: nounwind uwtable
define void @lv_timer_resume(ptr noundef %0) local_unnamed_addr #0 {
  %.not = icmp eq ptr %0, null
  br i1 %.not, label %.preheader, label %2

.preheader:                                       ; preds = %1, %.preheader
  br label %.preheader

2:                                                ; preds = %1
  %3 = getelementptr inbounds nuw i8, ptr %0, i64 28
  %4 = load i8, ptr %3, align 4
  %5 = and i8 %4, -2
  store i8 %5, ptr %3, align 4
  store i32 0, ptr getelementptr inbounds nuw (i8, ptr @lv_global, i64 244), align 4, !tbaa !19
  %6 = load ptr, ptr getelementptr inbounds nuw (i8, ptr @lv_global, i64 272), align 8, !tbaa !20
  %.not.i = icmp eq ptr %6, null
  br i1 %.not.i, label %lv_timer_handler_resume.exit, label %7

7:                                                ; preds = %2
  %8 = load ptr, ptr getelementptr inbounds nuw (i8, ptr @lv_global, i64 280), align 8, !tbaa !21
  tail call void %6(ptr noundef %8) #8
  br label %lv_timer_handler_resume.exit

lv_timer_handler_resume.exit:                     ; preds = %2, %7
  ret void
}